target datalayout = "e-m:e-p270:32:32-p271:32:32-p272:64:64-i64:64-i128:128-f80:128-n8:16:32:64-S128"
target triple = "x86_64-pc-linux-gnu"

@.str.100 = private unnamed_addr constant [9 x i8] c"ip.proto\00", align 1

; Function Attrs: null_pointer_is_valid sspstrong uwtable
define internal zeroext i1 @capture_ah(ptr noundef %0, i32 noundef %1, i32 noundef %2, ptr noundef %3, ptr noundef %4) #0 {
  %6 = alloca i1, align 1
  %7 = alloca ptr, align 8
  %8 = alloca i32, align 4
  %9 = alloca i32, align 4
  %10 = alloca ptr, align 8
  %11 = alloca ptr, align 8
  %12 = alloca i8, align 1
  %13 = alloca i32, align 4
  %14 = alloca i32, align 4
  store ptr %0, ptr %7, align 8
  store i32 %1, ptr %8, align 4
  store i32 %2, ptr %9, align 4
  store ptr %3, ptr %10, align 8
  store ptr %4, ptr %11, align 8
  call void @llvm.lifetime.start.p0(i64 1, ptr %12) #17
  call void @llvm.lifetime.start.p0(i64 4, ptr %13) #17
  %15 = load i32, ptr %8, align 4
  %16 = add i32 %15, 2
  %17 = load i32, ptr %8, align 4
  %18 = icmp ugt i32 %16, %17
  br i1 %18, label %19, label %24

19:                                               ; preds = %5
  %20 = load i32, ptr %8, align 4
  %21 = add i32 %20, 2
  %22 = load i32, ptr %9, align 4
  %23 = icmp ule i32 %21, %22
  br i1 %23, label %25, label %24

24:                                               ; preds = %19, %5
  store i1 false, ptr %6, align 1
  store i32 1, ptr %14, align 4
  br label %65

25:                                               ; preds = %19
  %26 = load ptr, ptr %7, align 8
  %27 = load i32, ptr %8, align 4
  %28 = sext i32 %27 to i64
  %29 = getelementptr i8, ptr %26, i64 %28
  %30 = load i8, ptr %29, align 1
  store i8 %30, ptr %12, align 1
  %31 = load ptr, ptr %7, align 8
  %32 = load i32, ptr %8, align 4
  %33 = add i32 %32, 1
  %34 = sext i32 %33 to i64
  %35 = getelementptr i8, ptr %31, i64 %34
  %36 = load i8, ptr %35, align 1
  %37 = zext i8 %36 to i32
  %38 = sub i32 %37, 1
  %39 = shl i32 %38, 2
  %40 = add i32 8, %39
  store i32 %40, ptr %13, align 4
  %41 = load i32, ptr %8, align 4
  %42 = load i32, ptr %13, align 4
  %43 = add i32 %41, %42
  %44 = load i32, ptr %8, align 4
  %45 = icmp ugt i32 %43, %44
  br i1 %45, label %46, label %52

46:                                               ; preds = %25
  %47 = load i32, ptr %8, align 4
  %48 = load i32, ptr %13, align 4
  %49 = add i32 %47, %48
  %50 = load i32, ptr %9, align 4
  %51 = icmp ule i32 %49, %50
  br i1 %51, label %53, label %52

52:                                               ; preds = %46, %25
  store i1 false, ptr %6, align 1
  store i32 1, ptr %14, align 4
  br label %65

53:                                               ; preds = %46
  %54 = load i32, ptr %13, align 4
  %55 = load i32, ptr %8, align 4
  %56 = add i32 %55, %54
  store i32 %56, ptr %8, align 4
  %57 = load i8, ptr %12, align 1
  %58 = zext i8 %57 to i32
  %59 = load ptr, ptr %7, align 8
  %60 = load i32, ptr %8, align 4
  %61 = load i32, ptr %9, align 4
  %62 = load ptr, ptr %10, align 8
  %63 = load ptr, ptr %11, align 8
  %64 = call zeroext i1 @try_capture_dissector(ptr noundef @.str.100, i32 noundef %58, ptr noundef %59, i32 noundef %60, i32 noundef %61, ptr noundef %62, ptr noundef %63)
  store i1 %64, ptr %6, align 1
  store i32 1, ptr %14, align 4
  br label %65

65:                                               ; preds = %53, %52, %24
  call void @llvm.lifetime.end.p0(i64 4, ptr %13) #17
  call void @llvm.lifetime.end.p0(i64 1, ptr %12) #17
  %66 = load i1, ptr %6, align 1
  ret i1 %66
}