; Function Attrs: null_pointer_is_valid sspstrong uwtable
define internal zeroext i1 @capture_ah(ptr noundef %0, i32 noundef %1, i32 noundef %2, ptr noundef %3, ptr noundef %4) #0 {
  %6 = icmp ugt i32 %1, -3
  %7 = add i32 %1, 2
  %.not = icmp ugt i32 %7, %2
  %or.cond = or i1 %6, %.not
  br i1 %or.cond, label %24, label %8

8:                                                ; preds = %5
  %9 = add nuw i32 %1, 1
  %10 = sext i32 %9 to i64
  %11 = getelementptr i8, ptr %0, i64 %10
  %12 = load i8, ptr %11, align 1
  %13 = zext i8 %12 to i32
  %14 = shl nuw nsw i32 %13, 2
  %15 = add i32 %1, 4
  %16 = add i32 %15, %14
  %17 = icmp ule i32 %16, %1
  %.not26 = icmp ugt i32 %16, %2
  %or.cond27 = or i1 %17, %.not26
  br i1 %or.cond27, label %24, label %18

18:                                               ; preds = %8
  %19 = sext i32 %1 to i64
  %20 = getelementptr i8, ptr %0, i64 %19
  %21 = load i8, ptr %20, align 1
  %22 = zext i8 %21 to i32
  %23 = tail call zeroext i1 @try_capture_dissector(ptr noundef nonnull @.str.100, i32 noundef %22, ptr noundef %0, i32 noundef %16, i32 noundef %2, ptr noundef %3, ptr noundef %4)
  br label %24

24:                                               ; preds = %8, %5, %18
  %.0 = phi i1 [ %23, %18 ], [ false, %5 ], [ false, %8 ]
  ret i1 %.0
}